; Function Attrs: mustprogress nounwind uwtable
define internal fastcc void @_ZN8facebook5velox12_GLOBAL__N_113ScopedOptionsD2Ev(ptr noundef nonnull align 8 dereferenceable(112) %this) unnamed_addr #3 align 2 personality ptr @__gxx_personality_v0 {
entry:
  %0 = load ptr, ptr %this, align 8
  %savedOpts = getelementptr inbounds i8, ptr %this, i64 8
  tail call void @llvm.memcpy.p0.p0.i64(ptr noundef nonnull align 8 dereferenceable(32) %0, ptr noundef nonnull align 8 dereferenceable(32) %savedOpts, i64 32, i1 false)
  %charEncodings.i.i = getelementptr inbounds i8, ptr %0, i64 32
  %charEncodings3.i.i = getelementptr inbounds i8, ptr %this, i64 40
  %call.i.i1 = invoke noundef nonnull align 8 dereferenceable(24) ptr @_ZNSt6vectorIN8facebook5velox12UTF8CharListESaIS2_EEaSERKS4_(ptr noundef nonnull align 8 dereferenceable(24) %charEncodings.i.i, ptr noundef nonnull align 8 dereferenceable(24) %charEncodings3.i.i)
          to label %invoke.cont unwind label %terminate.lpad

invoke.cont:                                      ; preds = %entry
  %stringVariableLength.i.i = getelementptr inbounds i8, ptr %0, i64 56
  %stringVariableLength4.i.i = getelementptr inbounds i8, ptr %this, i64 64
  tail call void @llvm.memcpy.p0.p0.i64(ptr noundef nonnull align 8 dereferenceable(43) %stringVariableLength.i.i, ptr noundef nonnull align 8 dereferenceable(43) %stringVariableLength4.i.i, i64 43, i1 false)
  %1 = load ptr, ptr %charEncodings3.i.i, align 8
  %tobool.not.i.i.i.i = icmp eq ptr %1, null
  br i1 %tobool.not.i.i.i.i, label %_ZN8facebook5velox12VectorFuzzer7OptionsD2Ev.exit, label %if.then.i.i.i.i

if.then.i.i.i.i:                                  ; preds = %invoke.cont
  tail call void @_ZdlPv(ptr noundef nonnull %1) #30
  br label %_ZN8facebook5velox12VectorFuzzer7OptionsD2Ev.exit

_ZN8facebook5velox12VectorFuzzer7OptionsD2Ev.exit: ; preds = %invoke.cont, %if.then.i.i.i.i
  ret void

terminate.lpad:                                   ; preds = %entry
  %2 = landingpad { ptr, i32 }
          catch ptr null
  %3 = extractvalue { ptr, i32 } %2, 0
  tail call void @__clang_call_terminate(ptr %3) #33
  unreachable
}